
Discarded input sections

 .comment       0x0000000000000000       0x45 kern/main.o
 .comment       0x0000000000000000       0x45 kern/cpu.o
 .comment       0x0000000000000000       0x45 kern/kprintf.o
 .comment       0x0000000000000000       0x45 kern/exception.o
 .comment       0x0000000000000000       0x45 kern/machine.o
 .comment       0x0000000000000000       0x45 kern/vm/vm.o
 .comment       0x0000000000000000       0x45 kern/vm/vm_walk.o
 .comment       0x0000000000000000       0x45 kern/vm/vm_page.o
 .comment       0x0000000000000000       0x45 kern/vm/vm_map.o
 .comment       0x0000000000000000       0x45 kern/vm/pmap.o
 .comment       0x0000000000000000       0x45 libkern/panic.o
 .comment       0x0000000000000000       0x45 tinylibc/string/memchr.o
 .comment       0x0000000000000000       0x45 tinylibc/string/memcmp.o
 .comment       0x0000000000000000       0x45 tinylibc/string/memcpy.o
 .comment       0x0000000000000000       0x45 tinylibc/string/memmove.o
 .comment       0x0000000000000000       0x45 tinylibc/string/memset.o
 .comment       0x0000000000000000       0x45 tinylibc/string/strchr.o
 .comment       0x0000000000000000       0x45 tinylibc/string/strcmp.o
 .comment       0x0000000000000000       0x45 tinylibc/string/strlcpy.o
 .comment       0x0000000000000000       0x45 tinylibc/string/strlen.o
 .comment       0x0000000000000000       0x45 tinylibc/string/strncmp.o
 .comment       0x0000000000000000       0x45 tinylibc/string/strnlen.o
 .comment       0x0000000000000000       0x45 tinylibc/string/strrchr.o
 .comment       0x0000000000000000       0x45 tinylibc/string/strtoul.o
 .comment       0x0000000000000000       0x45 platform/devicetree.o
 .comment       0x0000000000000000       0x45 platform/platform.o
 .comment       0x0000000000000000       0x45 drivers/pl011/pl011.o
 .comment       0x0000000000000000       0x45 libfdt/fdt.o
 .comment       0x0000000000000000       0x45 libfdt/fdt_addresses.o
 .comment       0x0000000000000000       0x45 libfdt/fdt_empty_tree.o
 .comment       0x0000000000000000       0x45 libfdt/fdt_overlay.o
 .comment       0x0000000000000000       0x45 libfdt/fdt_ro.o
 .comment       0x0000000000000000       0x45 libfdt/fdt_rw.o
 .comment       0x0000000000000000       0x45 libfdt/fdt_strerror.o
 .comment       0x0000000000000000       0x45 libfdt/fdt_sw.o
 .comment       0x0000000000000000       0x45 libfdt/fdt_wip.o

Memory Configuration

Name             Origin             Length             Attributes
*default*        0x0000000000000000 0xffffffffffffffff

Linker script and memory map

                0x0000000000000000                . = 0x0

.text           0x0000000000000000     0xb828
 *(.text.boot)
 *(.text .text.* .gnu.linkonce.t*)
 .text          0x0000000000000000     0x19e8 arch/start.o
                0x0000000000000000                _header
                0x0000000000000020                _LowResetVector
                0x0000000000001000                _LowExceptionVectorBase
                0x0000000000001784                _ResetVector
                0x00000000000017d4                _SecondaryResetVector
                0x00000000000017ec                _start
 .text          0x00000000000019e8        0x0 arch/data.o
 .text          0x00000000000019e8       0x6c arch/mmu.o
                0x00000000000019e8                mmu_set_tcr
                0x00000000000019f8                mmu_set_tt_base
                0x0000000000001a08                mmu_set_tt_base_alt
                0x0000000000001a18                mmu_get_tcr
                0x0000000000001a20                mmu_get_tt_base
                0x0000000000001a28                mmu_get_tt_base_alt
                0x0000000000001a30                mmu_translate_kvtop
 *fill*         0x0000000000001a54      0x5ac 
 .text          0x0000000000002000     0x10b8 arch/handler.o
                0x0000000000002000                _ExceptionVectorBase
 .text          0x00000000000030b8       0x60 arch/helpers.o
                0x00000000000030b8                arm64_read_cpuid
                0x00000000000030c0                arm64_read_affinity
                0x00000000000030d0                arm64_write_icc_sgi1r_el1
                0x00000000000030d8                arm64_write_icc_eoir1_el1
                0x00000000000030e0                arm64_read_icc_iar1_el1
                0x00000000000030e8                arm64_icc_sre_el1_write
                0x00000000000030f0                arm64_icc_sre_el1_read
                0x00000000000030f8                arm64_icc_pmr_el1_write
                0x0000000000003100                arm64_icc_igrpen1_el1_write
                0x0000000000003108                arm64_icc_igrpen1_el1_read
                0x0000000000003110                arm64_read_sctlr_el1
 .text          0x0000000000003118      0x2bc kern/main.o
                0x0000000000003118                kernel_init
                0x00000000000032d4                print_boot_banner
 .text          0x00000000000033d4      0x1a8 kern/cpu.o
                0x00000000000033d4                cpu_get_current
                0x0000000000003430                cpu_get_id
                0x000000000000347c                cpu_data_init
                0x00000000000034b0                cpu_data_register
                0x0000000000003510                cpu_set_boot_cpu
                0x000000000000354c                cpu_init
                0x0000000000003570                cpu_halt
 .text          0x000000000000357c      0x9f8 kern/kprintf.o
                0x000000000000357c                kprintf_init
                0x00000000000035c8                interface_log
                0x0000000000003664                kprintf_hexdump
                0x0000000000003868                kprintf
                0x00000000000038e0                sprintf
                0x0000000000003910                snprintf
                0x0000000000003940                vprintf
 .text          0x0000000000003f74      0x980 kern/exception.o
                0x000000000000471c                arm64_handler_synchronous
                0x0000000000004834                arm64_handler_serror
                0x0000000000004858                arm64_handler_fiq
                0x0000000000004890                arm64_handler_irq
 .text          0x00000000000048f4      0x624 kern/machine.o
                0x000000000000494c                machine_get_boot_cpu_num
                0x0000000000004960                machine_get_num_clusters
                0x0000000000004970                machine_get_max_cpu_num
                0x0000000000004980                machine_get_num_cpus
                0x0000000000004990                machine_get_cpu_num
                0x0000000000004a50                machine_get_name
                0x0000000000004aac                machine_parse_cpu_topology
 .text          0x0000000000004f18      0x500 kern/vm/vm.o
                0x000000000000508c                vm_configure
                0x00000000000051b8                arm_vm_init
                0x000000000000539c                vm_debug_overview
 .text          0x0000000000005418      0x2ac kern/vm/vm_walk.o
                0x0000000000005600                vm_pagetable_walk_ttbr1
                0x0000000000005668                vm_pagetable_walk_ttbr0
                0x0000000000005698                vm_pagetable_walk
 .text          0x00000000000056c4      0x6a8 kern/vm/vm_page.o
                0x0000000000005834                vm_page_alloc
                0x00000000000058ec                vm_page_free
                0x000000000000597c                vm_page_bootstrap
 .text          0x0000000000005d6c      0x378 kern/vm/vm_map.o
                0x0000000000005d6c                vm_map_entry_create
                0x0000000000005e1c                vm_map_lock
                0x0000000000005e40                vm_map_unlock
                0x0000000000005ed0                vm_map_create
                0x0000000000005f30                vm_map_create_new
                0x0000000000005fd4                vm_map_alloc
                0x00000000000060c8                vm_map_alloc_at_address
 .text          0x00000000000060e4      0x2bc kern/vm/pmap.o
                0x00000000000060e4                pmap_ptregion_alloc
                0x0000000000006168                pmap_ptregion_create
                0x0000000000006210                pmap_tt_create_tte
 .text          0x00000000000063a0       0xf0 libkern/panic.o
                0x00000000000063a0                panic
 .text          0x0000000000006490       0x68 tinylibc/string/memchr.o
                0x0000000000006490                memchr
 .text          0x00000000000064f8       0x94 tinylibc/string/memcmp.o
                0x00000000000064f8                memcmp
 .text          0x000000000000658c       0xe0 tinylibc/string/memcpy.o
                0x000000000000658c                memcpy
 .text          0x000000000000666c       0xbc tinylibc/string/memmove.o
                0x000000000000666c                memmove
 .text          0x0000000000006728       0xd8 tinylibc/string/memset.o
                0x0000000000006728                memset
 .text          0x0000000000006800       0x58 tinylibc/string/strchr.o
                0x0000000000006800                strchr
 .text          0x0000000000006858       0x6c tinylibc/string/strcmp.o
                0x0000000000006858                strcmp
 .text          0x00000000000068c4       0x84 tinylibc/string/strlcpy.o
                0x00000000000068c4                strlcpy
 .text          0x0000000000006948       0x30 tinylibc/string/strlen.o
                0x0000000000006948                strlen
 .text          0x0000000000006978       0xb0 tinylibc/string/strncmp.o
                0x0000000000006978                strncmp
 .text          0x0000000000006a28       0x58 tinylibc/string/strnlen.o
                0x0000000000006a28                strnlen
 .text          0x0000000000006a80       0x70 tinylibc/string/strrchr.o
                0x0000000000006a80                strrchr
 .text          0x0000000000006af0      0x260 tinylibc/string/strtoul.o
                0x0000000000006af0                strtoul
 .text          0x0000000000006d50      0xacc platform/devicetree.o
                0x0000000000006e64                BootDeviceTreeGetRootNode
                0x0000000000006e70                DeviceTreeInit
                0x0000000000006f3c                DeviceTreeVerify
                0x0000000000006fbc                DeviceTreeNodeExists
                0x0000000000006fec                DeviceTreeLookupNode
                0x0000000000007124                DeviceTreeLookupNodeByOffset
                0x00000000000071ec                DeviceTreeNodeFirstSubnode
                0x0000000000007260                DeviceTreeNodeNextSubnode
                0x00000000000072d4                DeviceTreeIteratorInit
                0x00000000000073cc                DeviceTreeIterateNodes
                0x00000000000074c4                DeviceTreeLookupPropertyValue
                0x0000000000007568                DeviceTreeLookupNodeByPhandle
                0x0000000000007650                DeviceTreeLookupReg
                0x00000000000076d0                DeviceTreeLookupRegValue
 .text          0x000000000000781c       0x78 platform/platform.o
                0x000000000000781c                platform_get_memory
 .text          0x0000000000007894       0xac drivers/pl011/pl011.o
                0x0000000000007894                pl011_putc
                0x00000000000078b4                pl011_puts
                0x00000000000078e4                pl011_getc
                0x00000000000078fc                pl011_init
 .text          0x0000000000007940      0x624 libfdt/fdt.o
                0x0000000000007948                fdt_ro_probe_
                0x00000000000079e4                fdt_header_size_
                0x0000000000007a18                fdt_header_size
                0x0000000000007a30                fdt_check_header
                0x0000000000007b54                fdt_offset_ptr
                0x0000000000007bd8                fdt_next_tag
                0x0000000000007ce8                fdt_check_node_offset_
                0x0000000000007d28                fdt_check_prop_offset_
                0x0000000000007d68                fdt_next_node
                0x0000000000007e18                fdt_first_subnode
                0x0000000000007e4c                fdt_next_subnode
                0x0000000000007e9c                fdt_find_string_
                0x0000000000007f08                fdt_move
 .text          0x0000000000007f64      0x1d0 libfdt/fdt_addresses.o
                0x0000000000007fac                fdt_address_cells
                0x0000000000007fe0                fdt_size_cells
                0x0000000000008008                fdt_appendprop_addrrange
 .text          0x0000000000008134       0x78 libfdt/fdt_empty_tree.o
                0x0000000000008134                fdt_create_empty_tree
 .text          0x00000000000081ac      0xbc8 libfdt/fdt_overlay.o
                0x00000000000086b0                fdt_overlay_apply
                0x0000000000008d70                fdt_overlay_apply_node
 .text          0x0000000000008d74     0x13ec libfdt/fdt_ro.o
                0x0000000000008ea4                fdt_get_string
                0x0000000000008fc0                fdt_string
                0x0000000000008fc8                fdt_get_mem_rsv
                0x0000000000009038                fdt_num_mem_rsv
                0x000000000000907c                fdt_get_name
                0x000000000000912c                fdt_subnode_offset_namelen
                0x0000000000009210                fdt_subnode_offset
                0x0000000000009254                fdt_first_property_offset
                0x000000000000928c                fdt_next_property_offset
                0x000000000000939c                fdt_get_property_by_offset
                0x00000000000093dc                fdt_get_property_namelen
                0x0000000000009420                fdt_get_property
                0x000000000000946c                fdt_getprop_namelen
                0x00000000000094d8                fdt_getprop_by_offset
                0x0000000000009590                fdt_getprop
                0x00000000000095dc                fdt_get_phandle
                0x0000000000009658                fdt_find_max_phandle
                0x00000000000096d8                fdt_generate_phandle
                0x0000000000009728                fdt_get_alias_namelen
                0x000000000000978c                fdt_path_offset_namelen
                0x0000000000009894                fdt_path_offset
                0x00000000000098c8                fdt_get_alias
                0x00000000000098fc                fdt_get_path
                0x0000000000009a74                fdt_supernode_atdepth_offset
                0x0000000000009b38                fdt_node_depth
                0x0000000000009b68                fdt_parent_offset
                0x0000000000009bac                fdt_node_offset_by_prop_value
                0x0000000000009c54                fdt_node_offset_by_phandle
                0x0000000000009cd8                fdt_stringlist_contains
                0x0000000000009d70                fdt_stringlist_count
                0x0000000000009dec                fdt_stringlist_search
                0x0000000000009ea8                fdt_stringlist_get
                0x0000000000009f58                fdt_node_check_compatible
                0x0000000000009fa4                fdt_node_offset_by_compatible
                0x000000000000a010                fdt_check_full
 .text          0x000000000000a160      0xd00 libfdt/fdt_rw.o
                0x000000000000a628                fdt_add_mem_rsv
                0x000000000000a6c0                fdt_del_mem_rsv
                0x000000000000a738                fdt_set_name
                0x000000000000a7e0                fdt_setprop_placeholder
                0x000000000000a8b8                fdt_setprop
                0x000000000000a90c                fdt_appendprop
                0x000000000000aa04                fdt_delprop
                0x000000000000aa70                fdt_add_subnode_namelen
                0x000000000000ab8c                fdt_add_subnode
                0x000000000000abd0                fdt_del_node
                0x000000000000ac40                fdt_open_into
                0x000000000000adec                fdt_pack
 .text          0x000000000000ae60       0x4c libfdt/fdt_strerror.o
                0x000000000000ae60                fdt_strerror
 .text          0x000000000000aeac      0x794 libfdt/fdt_sw.o
                0x000000000000b054                fdt_create_with_flags
                0x000000000000b0fc                fdt_create
                0x000000000000b104                fdt_resize
                0x000000000000b224                fdt_add_reservemap_entry
                0x000000000000b2b0                fdt_finish_reservemap
                0x000000000000b2ec                fdt_begin_node
                0x000000000000b364                fdt_end_node
                0x000000000000b3a8                fdt_property_placeholder
                0x000000000000b4bc                fdt_property
                0x000000000000b50c                fdt_finish
 .text          0x000000000000b640      0x1e8 libfdt/fdt_wip.o
                0x000000000000b640                fdt_setprop_inplace_namelen_partial
                0x000000000000b6a8                fdt_setprop_inplace
                0x000000000000b734                fdt_nop_property
                0x000000000000b77c                fdt_node_end_offset_
                0x000000000000b7c0                fdt_nop_node

.rodata         0x0000000000010000    0x21740
 *(.rodata.defaults)
 *(.rodata .rodata.* .gnu.linkonce.r*)
 .rodata        0x0000000000010000    0x20000 arch/data.o
                0x0000000000010000                intstack_base
                0x0000000000014002                intstack_top
                0x0000000000014002                excepstack_base
                0x0000000000018004                excepstack_top
                0x0000000000018004                __stack_high_guard
                0x0000000000020000                pagetables_region_base
                0x0000000000030000                pagetables_region_end
 .rodata        0x0000000000030000      0x1f2 kern/main.o
 *fill*         0x00000000000301f2        0x6 
 .rodata        0x00000000000301f8       0x58 kern/kprintf.o
 .rodata        0x0000000000030250      0x5b2 kern/exception.o
 *fill*         0x0000000000030802        0x6 
 .rodata        0x0000000000030808       0xff kern/machine.o
 *fill*         0x0000000000030907        0x1 
 .rodata        0x0000000000030908      0x1d7 kern/vm/vm.o
 *fill*         0x0000000000030adf        0x1 
 .rodata        0x0000000000030ae0       0xcb kern/vm/vm_walk.o
 *fill*         0x0000000000030bab        0x5 
 .rodata        0x0000000000030bb0      0x1a4 kern/vm/vm_page.o
 *fill*         0x0000000000030d54        0x4 
 .rodata        0x0000000000030d58       0x89 kern/vm/vm_map.o
 *fill*         0x0000000000030de1        0x7 
 .rodata        0x0000000000030de8       0x9d kern/vm/pmap.o
 .rodata.str1.1
                0x0000000000030e85      0x33d libkern/panic.o
                                         0xe4 (size before relaxing)
 *fill*         0x00000000000311c2        0x6 
 .rodata        0x00000000000311c8      0x100 tinylibc/string/strtoul.o
                0x00000000000311c8                _ctype
 .rodata        0x00000000000312c8      0x3da platform/devicetree.o
 .rodata.str1.1
                0x00000000000316a2       0x54 platform/platform.o
 .rodata.str1.1
                0x00000000000316a2       0x1b libfdt/fdt_addresses.o
 .rodata.str1.1
                0x00000000000316a2        0x1 libfdt/fdt_empty_tree.o
 .rodata.str1.1
                0x00000000000316a2       0x88 libfdt/fdt_overlay.o
 .rodata.str1.1
                0x00000000000316a2       0x2a libfdt/fdt_ro.o
 .rodata.str1.1
                0x00000000000316a2      0x16f libfdt/fdt_strerror.o
 *fill*         0x00000000000316a2        0x6 
 .rodata        0x00000000000316a8       0x98 libfdt/fdt_strerror.o
                [!provide]                        PROVIDE (_data = .)

.data           0x0000000000032000   0x7d0050
 *(.data .data.* .gnu.linkonce.d*)
 .data          0x0000000000032000        0x0 arch/start.o
 .data          0x0000000000032000        0x0 arch/data.o
 .data          0x0000000000032000        0x0 arch/mmu.o
 .data          0x0000000000032000        0x0 arch/handler.o
 .data          0x0000000000032000        0x0 arch/helpers.o
 .data          0x0000000000032000        0x0 kern/main.o
 .data          0x0000000000032000        0x0 kern/cpu.o
 .data          0x0000000000032000        0x0 kern/kprintf.o
 .data          0x0000000000032000        0x0 kern/exception.o
 .data          0x0000000000032000        0x0 kern/machine.o
 .data          0x0000000000032000   0x7d0030 kern/vm/vm.o
                0x0000000000032000                bootstrap_pagetables
 .data          0x0000000000802030        0x0 kern/vm/vm_walk.o
 .data          0x0000000000802030        0x0 kern/vm/vm_page.o
 .data          0x0000000000802030        0x0 kern/vm/vm_map.o
 .data          0x0000000000802030       0x20 kern/vm/pmap.o
                0x0000000000802030                kernel_tte
                0x0000000000802038                invalid_tte
                0x0000000000802040                kernel_ttep
                0x0000000000802048                invalid_ttep
 .data          0x0000000000802050        0x0 libkern/panic.o
 .data          0x0000000000802050        0x0 tinylibc/string/memchr.o
 .data          0x0000000000802050        0x0 tinylibc/string/memcmp.o
 .data          0x0000000000802050        0x0 tinylibc/string/memcpy.o
 .data          0x0000000000802050        0x0 tinylibc/string/memmove.o
 .data          0x0000000000802050        0x0 tinylibc/string/memset.o
 .data          0x0000000000802050        0x0 tinylibc/string/strchr.o
 .data          0x0000000000802050        0x0 tinylibc/string/strcmp.o
 .data          0x0000000000802050        0x0 tinylibc/string/strlcpy.o
 .data          0x0000000000802050        0x0 tinylibc/string/strlen.o
 .data          0x0000000000802050        0x0 tinylibc/string/strncmp.o
 .data          0x0000000000802050        0x0 tinylibc/string/strnlen.o
 .data          0x0000000000802050        0x0 tinylibc/string/strrchr.o
 .data          0x0000000000802050        0x0 tinylibc/string/strtoul.o
 .data          0x0000000000802050        0x0 platform/devicetree.o
 .data          0x0000000000802050        0x0 platform/platform.o
 .data          0x0000000000802050        0x0 drivers/pl011/pl011.o
 .data          0x0000000000802050        0x0 libfdt/fdt.o
 .data          0x0000000000802050        0x0 libfdt/fdt_addresses.o
 .data          0x0000000000802050        0x0 libfdt/fdt_empty_tree.o
 .data          0x0000000000802050        0x0 libfdt/fdt_overlay.o
 .data          0x0000000000802050        0x0 libfdt/fdt_ro.o
 .data          0x0000000000802050        0x0 libfdt/fdt_rw.o
 .data          0x0000000000802050        0x0 libfdt/fdt_strerror.o
 .data          0x0000000000802050        0x0 libfdt/fdt_sw.o
 .data          0x0000000000802050        0x0 libfdt/fdt_wip.o

.bss            0x0000000000802050      0x740
                0x0000000000802050                . = ALIGN (0x10)
                0x0000000000802050                __bss_start = .
 *(.bss .bss.*)
 .bss           0x0000000000802050        0x0 arch/start.o
 .bss           0x0000000000802050        0x0 arch/data.o
 .bss           0x0000000000802050        0x0 arch/mmu.o
 .bss           0x0000000000802050        0x0 arch/handler.o
 .bss           0x0000000000802050        0x0 arch/helpers.o
 .bss           0x0000000000802050        0x0 kern/main.o
 .bss           0x0000000000802050      0x4c8 kern/cpu.o
 .bss           0x0000000000802518        0x4 kern/kprintf.o
 .bss           0x000000000080251c        0x4 kern/exception.o
                0x000000000080251c                irq_count
 .bss           0x0000000000802520      0x198 kern/machine.o
 .bss           0x00000000008026b8       0x38 kern/vm/vm.o
                0x00000000008026b8                memory_virt_base
                0x00000000008026c0                memory_phys_base
                0x00000000008026c8                memory_phys_size
 .bss           0x00000000008026f0        0x0 kern/vm/vm_walk.o
 .bss           0x00000000008026f0       0x28 kern/vm/vm_page.o
 .bss           0x0000000000802718        0x0 kern/vm/vm_map.o
 .bss           0x0000000000802718       0x18 kern/vm/pmap.o
                0x0000000000802718                pagetables_region_cursor
 .bss           0x0000000000802730        0x0 libkern/panic.o
 .bss           0x0000000000802730        0x0 tinylibc/string/memchr.o
 .bss           0x0000000000802730        0x0 tinylibc/string/memcmp.o
 .bss           0x0000000000802730        0x0 tinylibc/string/memcpy.o
 .bss           0x0000000000802730        0x0 tinylibc/string/memmove.o
 .bss           0x0000000000802730        0x0 tinylibc/string/memset.o
 .bss           0x0000000000802730        0x0 tinylibc/string/strchr.o
 .bss           0x0000000000802730        0x0 tinylibc/string/strcmp.o
 .bss           0x0000000000802730        0x0 tinylibc/string/strlcpy.o
 .bss           0x0000000000802730        0x0 tinylibc/string/strlen.o
 .bss           0x0000000000802730        0x0 tinylibc/string/strncmp.o
 .bss           0x0000000000802730        0x0 tinylibc/string/strnlen.o
 .bss           0x0000000000802730        0x0 tinylibc/string/strrchr.o
 .bss           0x0000000000802730        0x0 tinylibc/string/strtoul.o
 .bss           0x0000000000802730       0x58 platform/devicetree.o
 .bss           0x0000000000802788        0x0 platform/platform.o
 .bss           0x0000000000802788        0x8 drivers/pl011/pl011.o
 .bss           0x0000000000802790        0x0 libfdt/fdt.o
 .bss           0x0000000000802790        0x0 libfdt/fdt_addresses.o
 .bss           0x0000000000802790        0x0 libfdt/fdt_empty_tree.o
 .bss           0x0000000000802790        0x0 libfdt/fdt_overlay.o
 .bss           0x0000000000802790        0x0 libfdt/fdt_ro.o
 .bss           0x0000000000802790        0x0 libfdt/fdt_rw.o
 .bss           0x0000000000802790        0x0 libfdt/fdt_strerror.o
 .bss           0x0000000000802790        0x0 libfdt/fdt_sw.o
 .bss           0x0000000000802790        0x0 libfdt/fdt_wip.o
 *(COMMON)
                0x0000000000802790                __bss_end = .

.vm             0x0000000000802790        0x8
                0x0000000000802790                . = ALIGN (0x10)
                0x0000000000802790                __vm_start = .
 *(.vm .vm.*)
 .vm            0x0000000000802790        0x8 kern/vm/vm_page.o
 *(COMMON)
                0x0000000000802798                __vm_end = .
                0x0000000000802798                _end = .

/DISCARD/
 *(.comment)
 *(.gnu*)
 *(.note*)
 *(.eh_frame*)
 *(.igot*)
 *(.iplt*)
 *(.rela*)
LOAD arch/start.o
LOAD arch/data.o
LOAD arch/mmu.o
LOAD arch/handler.o
LOAD arch/helpers.o
LOAD kern/main.o
LOAD kern/cpu.o
LOAD kern/kprintf.o
LOAD kern/exception.o
LOAD kern/machine.o
LOAD kern/vm/vm.o
LOAD kern/vm/vm_walk.o
LOAD kern/vm/vm_page.o
LOAD kern/vm/vm_map.o
LOAD kern/vm/pmap.o
LOAD libkern/panic.o
LOAD tinylibc/string/memchr.o
LOAD tinylibc/string/memcmp.o
LOAD tinylibc/string/memcpy.o
LOAD tinylibc/string/memmove.o
LOAD tinylibc/string/memset.o
LOAD tinylibc/string/strchr.o
LOAD tinylibc/string/strcmp.o
LOAD tinylibc/string/strlcpy.o
LOAD tinylibc/string/strlen.o
LOAD tinylibc/string/strncmp.o
LOAD tinylibc/string/strnlen.o
LOAD tinylibc/string/strrchr.o
LOAD tinylibc/string/strtoul.o
LOAD platform/devicetree.o
LOAD platform/platform.o
LOAD drivers/pl011/pl011.o
LOAD libfdt/fdt.o
LOAD libfdt/fdt_addresses.o
LOAD libfdt/fdt_empty_tree.o
LOAD libfdt/fdt_overlay.o
LOAD libfdt/fdt_ro.o
LOAD libfdt/fdt_rw.o
LOAD libfdt/fdt_strerror.o
LOAD libfdt/fdt_sw.o
LOAD libfdt/fdt_wip.o
OUTPUT(kernel_elf elf64-littleaarch64)
LOAD linker stubs
